target datalayout = "e-m:e-p270:32:32-p271:32:32-p272:64:64-i64:64-i128:128-f80:128-n8:16:32:64-S128"
target triple = "x86_64-pc-linux-gnu"

; Function Attrs: inlinehint mustprogress nounwind uwtable
define linkonce_odr noundef zeroext i1 @_ZN4base16IsValidCharacterEj(i32 noundef %0) #2 comdat {
  %2 = alloca i32, align 4
  store i32 %0, ptr %2, align 4, !tbaa !8
  %3 = load i32, ptr %2, align 4, !tbaa !8
  %4 = icmp ult i32 %3, 55296
  br i1 %4, label %23, label %5

5:                                                ; preds = %1
  %6 = load i32, ptr %2, align 4, !tbaa !8
  %7 = icmp uge i32 %6, 57344
  br i1 %7, label %8, label %11

8:                                                ; preds = %5
  %9 = load i32, ptr %2, align 4, !tbaa !8
  %10 = icmp ult i32 %9, 64976
  br i1 %10, label %23, label %11

11:                                               ; preds = %8, %5
  %12 = load i32, ptr %2, align 4, !tbaa !8
  %13 = icmp ugt i32 %12, 65007
  br i1 %13, label %14, label %21

14:                                               ; preds = %11
  %15 = load i32, ptr %2, align 4, !tbaa !8
  %16 = icmp ule i32 %15, 1114111
  br i1 %16, label %17, label %21

17:                                               ; preds = %14
  %18 = load i32, ptr %2, align 4, !tbaa !8
  %19 = and i32 %18, 65534
  %20 = icmp ne i32 %19, 65534
  br label %21

21:                                               ; preds = %17, %14, %11
  %22 = phi i1 [ false, %14 ], [ false, %11 ], [ %20, %17 ]
  br label %23

23:                                               ; preds = %21, %8, %1
  %24 = phi i1 [ true, %8 ], [ true, %1 ], [ %22, %21 ]
  ret i1 %24
}

; Function Attrs: mustprogress uwtable
define noundef zeroext i1 @_ZN3url11ReadUTFCharEPKtPiiPj(ptr noundef %0, ptr noundef %1, i32 noundef %2, ptr noundef %3) #0 {
  %5 = alloca i1, align 1
  %6 = alloca ptr, align 8
  %7 = alloca ptr, align 8
  %8 = alloca i32, align 4
  %9 = alloca ptr, align 8
  store ptr %0, ptr %6, align 8, !tbaa !17
  store ptr %1, ptr %7, align 8, !tbaa !22
  store i32 %2, ptr %8, align 4, !tbaa !8
  store ptr %3, ptr %9, align 8, !tbaa !22
  %10 = load ptr, ptr %6, align 8, !tbaa !17
  %11 = load i32, ptr %8, align 4, !tbaa !8
  %12 = load ptr, ptr %7, align 8, !tbaa !22
  %13 = load ptr, ptr %9, align 8, !tbaa !22
  %14 = call noundef zeroext i1 @_ZN4base20ReadUnicodeCharacterEPKtiPiPj(ptr noundef %10, i32 noundef %11, ptr noundef %12, ptr noundef %13)
  br i1 %14, label %15, label %19

15:                                               ; preds = %4
  %16 = load ptr, ptr %9, align 8, !tbaa !22
  %17 = load i32, ptr %16, align 4, !tbaa !8
  %18 = call noundef zeroext i1 @_ZN4base16IsValidCharacterEj(i32 noundef %17)
  br i1 %18, label %21, label %19

19:                                               ; preds = %15, %4
  %20 = load ptr, ptr %9, align 8, !tbaa !22
  store i32 65533, ptr %20, align 4, !tbaa !8
  store i1 false, ptr %5, align 1
  br label %22

21:                                               ; preds = %15
  store i1 true, ptr %5, align 1
  br label %22

22:                                               ; preds = %21, %19
  %23 = load i1, ptr %5, align 1
  ret i1 %23
}